; Function Attrs: nounwind uwtable
define void @Part_ManStop(ptr noundef captures(none) %0) local_unnamed_addr #4 {
  %2 = getelementptr inbounds nuw i8, ptr %0, i64 24
  %3 = load ptr, ptr %2, align 8, !tbaa !16
  %4 = getelementptr i8, ptr %3, i64 4
  %.val16 = load i32, ptr %4, align 4, !tbaa !12
  %5 = icmp sgt i32 %.val16, 0
  br i1 %5, label %.lr.ph, label %.critedge

.lr.ph:                                           ; preds = %1, %11
  %6 = phi ptr [ %12, %11 ], [ %3, %1 ]
  %indvars.iv = phi i64 [ %indvars.iv.next, %11 ], [ 0, %1 ]
  %7 = getelementptr i8, ptr %6, i64 8
  %.val13 = load ptr, ptr %7, align 8, !tbaa !15
  %8 = getelementptr inbounds nuw ptr, ptr %.val13, i64 %indvars.iv
  %9 = load ptr, ptr %8, align 8, !tbaa !18
  %.not12 = icmp eq ptr %9, null
  br i1 %.not12, label %11, label %10

10:                                               ; preds = %.lr.ph
  tail call void @free(ptr noundef nonnull %9) #24
  %.pre = load ptr, ptr %2, align 8, !tbaa !16
  br label %11

11:                                               ; preds = %10, %.lr.ph
  %12 = phi ptr [ %.pre, %10 ], [ %6, %.lr.ph ]
  %indvars.iv.next = add nuw nsw i64 %indvars.iv, 1
  %13 = getelementptr i8, ptr %12, i64 4
  %.val = load i32, ptr %13, align 4, !tbaa !12
  %14 = sext i32 %.val to i64
  %15 = icmp slt i64 %indvars.iv.next, %14
  br i1 %15, label %.lr.ph, label %.critedge, !llvm.loop !19

.critedge:                                        ; preds = %11, %1
  %.lcssa = phi ptr [ %3, %1 ], [ %12, %11 ]
  %16 = getelementptr inbounds nuw i8, ptr %.lcssa, i64 8
  %17 = load ptr, ptr %16, align 8, !tbaa !15
  %.not.i = icmp eq ptr %17, null
  br i1 %.not.i, label %Vec_PtrFree.exit, label %18

18:                                               ; preds = %.critedge
  tail call void @free(ptr noundef nonnull %17) #24
  br label %Vec_PtrFree.exit

Vec_PtrFree.exit:                                 ; preds = %.critedge, %18
  tail call void @free(ptr noundef nonnull %.lcssa) #24
  %19 = getelementptr inbounds nuw i8, ptr %0, i64 32
  %20 = load ptr, ptr %19, align 8, !tbaa !17
  %21 = getelementptr inbounds nuw i8, ptr %20, i64 8
  %22 = load ptr, ptr %21, align 8, !tbaa !15
  %.not.i14 = icmp eq ptr %22, null
  br i1 %.not.i14, label %24, label %23

23:                                               ; preds = %Vec_PtrFree.exit
  tail call void @free(ptr noundef nonnull %22) #24
  br label %24

24:                                               ; preds = %Vec_PtrFree.exit, %23
  tail call void @free(ptr noundef nonnull %20) #24
  tail call void @free(ptr noundef nonnull %0) #24
  ret void
}